; Function Attrs: nounwind uwtable
define i32 @SeqInStream_Read2(ptr noundef %0, ptr noundef %1, i64 noundef %2, i32 noundef %3) local_unnamed_addr #0 {
  %5 = alloca i64, align 8
  %.not26 = icmp eq i64 %2, 0
  br i1 %.not26, label %.loopexit, label %.lr.ph

.lr.ph:                                           ; preds = %4, %11
  %.01428 = phi ptr [ %12, %11 ], [ %1, %4 ]
  %.01627 = phi i64 [ %13, %11 ], [ %2, %4 ]
  call void @llvm.lifetime.start.p0(i64 8, ptr nonnull %5) #7
  store i64 %.01627, ptr %5, align 8, !tbaa !3
  %6 = load ptr, ptr %0, align 8, !tbaa !7
  %7 = call i32 %6(ptr noundef nonnull %0, ptr noundef %.01428, ptr noundef nonnull %5) #7
  %.not20 = icmp eq i32 %7, 0
  br i1 %.not20, label %8, label %.thread

8:                                                ; preds = %.lr.ph
  %9 = load i64, ptr %5, align 8, !tbaa !3
  %10 = icmp eq i64 %9, 0
  br i1 %10, label %.thread, label %11

.thread:                                          ; preds = %.lr.ph, %8
  %.2.ph = phi i32 [ %3, %8 ], [ %7, %.lr.ph ]
  call void @llvm.lifetime.end.p0(i64 8, ptr nonnull %5) #7
  br label %.loopexit

11:                                               ; preds = %8
  %12 = getelementptr inbounds nuw i8, ptr %.01428, i64 %9
  %13 = sub i64 %.01627, %9
  call void @llvm.lifetime.end.p0(i64 8, ptr nonnull %5) #7
  %.not = icmp eq i64 %13, 0
  br i1 %.not, label %.loopexit, label %.lr.ph

.loopexit:                                        ; preds = %11, %4, %.thread
  %.3 = phi i32 [ %.2.ph, %.thread ], [ 0, %4 ], [ 0, %11 ]
  ret i32 %.3
}